target datalayout = "e-m:e-p270:32:32-p271:32:32-p272:64:64-i64:64-i128:128-f80:128-n8:16:32:64-S128"
target triple = "x86_64-unknown-linux-gnu"

%"class.icu_75::OlsonTimeZone" = type { %"class.icu_75::BasicTimeZone", i16, i16, i16, ptr, ptr, ptr, i16, ptr, ptr, ptr, double, i32, ptr, ptr, ptr, i16, ptr, ptr, i16, ptr, %"struct.icu_75::UInitOnce" }
%"class.icu_75::BasicTimeZone" = type { %"class.icu_75::TimeZone" }
%"class.icu_75::TimeZone" = type { %"class.icu_75::UObject", %"class.icu_75::UnicodeString" }
%"class.icu_75::UObject" = type { ptr }
%"class.icu_75::UnicodeString" = type { %"class.icu_75::Replaceable", %"union.icu_75::UnicodeString::StackBufferOrFields" }
%"class.icu_75::Replaceable" = type { %"class.icu_75::UObject" }
%"union.icu_75::UnicodeString::StackBufferOrFields" = type { %struct.anon.0, [32 x i8] }
%struct.anon.0 = type { i16, i32, i32, ptr }
%"struct.icu_75::UInitOnce" = type { %"struct.std::atomic", i32 }
%"struct.std::atomic" = type { %"struct.std::__atomic_base" }
%"struct.std::__atomic_base" = type { i32 }

; Function Attrs: mustprogress nounwind uwtable
define linkonce_odr noundef i32 @_ZStanSt12memory_orderSt23__memory_order_modifier(i32 noundef %__m, i32 noundef %__mod) #0 comdat {
entry:
  %__m.addr = alloca i32, align 4
  %__mod.addr = alloca i32, align 4
  store i32 %__m, ptr %__m.addr, align 4
  store i32 %__mod, ptr %__mod.addr, align 4
  %0 = load i32, ptr %__m.addr, align 4
  %1 = load i32, ptr %__mod.addr, align 4
  %and = and i32 %0, %1
  ret i32 %and
}

; Function Attrs: mustprogress nounwind uwtable
define linkonce_odr noundef i32 @_ZN6icu_7516umtx_loadAcquireERSt6atomicIiE(ptr noundef nonnull align 4 dereferenceable(4) %var) #0 comdat {
entry:
  %this.addr.i = alloca ptr, align 8
  %__m.addr.i = alloca i32, align 4
  %__b.i = alloca i32, align 4
  %atomic-temp.i = alloca i32, align 4
  %var.addr = alloca ptr, align 8
  store ptr %var, ptr %var.addr, align 8
  %0 = load ptr, ptr %var.addr, align 8
  store ptr %0, ptr %this.addr.i, align 8
  store i32 2, ptr %__m.addr.i, align 4
  %this1.i = load ptr, ptr %this.addr.i, align 8
  %1 = load i32, ptr %__m.addr.i, align 4
  %call.i = call noundef i32 @_ZStanSt12memory_orderSt23__memory_order_modifier(i32 noundef %1, i32 noundef 65535)
  store i32 %call.i, ptr %__b.i, align 4
  %2 = load i32, ptr %__m.addr.i, align 4
  switch i32 %2, label %monotonic.i [
    i32 1, label %acquire.i
    i32 2, label %acquire.i
    i32 5, label %seqcst.i
  ]

monotonic.i:                                      ; preds = %entry
  %3 = load atomic i32, ptr %this1.i monotonic, align 4
  store i32 %3, ptr %atomic-temp.i, align 4
  br label %_ZNKSt13__atomic_baseIiE4loadESt12memory_order.exit

acquire.i:                                        ; preds = %entry, %entry
  %4 = load atomic i32, ptr %this1.i acquire, align 4
  store i32 %4, ptr %atomic-temp.i, align 4
  br label %_ZNKSt13__atomic_baseIiE4loadESt12memory_order.exit

seqcst.i:                                         ; preds = %entry
  %5 = load atomic i32, ptr %this1.i seq_cst, align 4
  store i32 %5, ptr %atomic-temp.i, align 4
  br label %_ZNKSt13__atomic_baseIiE4loadESt12memory_order.exit

_ZNKSt13__atomic_baseIiE4loadESt12memory_order.exit: ; preds = %seqcst.i, %acquire.i, %monotonic.i
  %6 = load i32, ptr %atomic-temp.i, align 4
  ret i32 %6
}

; Function Attrs: mustprogress uwtable
define linkonce_odr void @_ZN6icu_7513umtx_initOnceIPNS_13OlsonTimeZoneEEEvRNS_9UInitOnceEPFvT_R10UErrorCodeES5_S7_(ptr noundef nonnull align 4 dereferenceable(8) %uio, ptr noundef %fp, ptr noundef %context, ptr noundef nonnull align 4 dereferenceable(4) %errCode) #1 comdat {
entry:
  %uio.addr = alloca ptr, align 8
  %fp.addr = alloca ptr, align 8
  %context.addr = alloca ptr, align 8
  %errCode.addr = alloca ptr, align 8
  store ptr %uio, ptr %uio.addr, align 8
  store ptr %fp, ptr %fp.addr, align 8
  store ptr %context, ptr %context.addr, align 8
  store ptr %errCode, ptr %errCode.addr, align 8
  %0 = load ptr, ptr %errCode.addr, align 8
  %1 = load i32, ptr %0, align 4
  %call = call noundef signext i8 @_ZL9U_FAILURE10UErrorCode(i32 noundef %1)
  %tobool = icmp ne i8 %call, 0
  br i1 %tobool, label %if.then, label %if.end

if.then:                                          ; preds = %entry
  br label %if.end11

if.end:                                           ; preds = %entry
  %2 = load ptr, ptr %uio.addr, align 8
  %fState = getelementptr inbounds %"struct.icu_75::UInitOnce", ptr %2, i32 0, i32 0
  %call1 = call noundef i32 @_ZN6icu_7516umtx_loadAcquireERSt6atomicIiE(ptr noundef nonnull align 4 dereferenceable(4) %fState)
  %cmp = icmp ne i32 %call1, 2
  br i1 %cmp, label %land.lhs.true, label %if.else

land.lhs.true:                                    ; preds = %if.end
  %3 = load ptr, ptr %uio.addr, align 8
  %call2 = call noundef signext i8 @_ZN6icu_7520umtx_initImplPreInitERNS_9UInitOnceE(ptr noundef nonnull align 4 dereferenceable(8) %3)
  %tobool3 = icmp ne i8 %call2, 0
  br i1 %tobool3, label %if.then4, label %if.else

if.then4:                                         ; preds = %land.lhs.true
  %4 = load ptr, ptr %fp.addr, align 8
  %5 = load ptr, ptr %context.addr, align 8
  %6 = load ptr, ptr %errCode.addr, align 8
  call void %4(ptr noundef %5, ptr noundef nonnull align 4 dereferenceable(4) %6)
  %7 = load ptr, ptr %errCode.addr, align 8
  %8 = load i32, ptr %7, align 4
  %9 = load ptr, ptr %uio.addr, align 8
  %fErrCode = getelementptr inbounds %"struct.icu_75::UInitOnce", ptr %9, i32 0, i32 1
  store i32 %8, ptr %fErrCode, align 4
  %10 = load ptr, ptr %uio.addr, align 8
  call void @_ZN6icu_7521umtx_initImplPostInitERNS_9UInitOnceE(ptr noundef nonnull align 4 dereferenceable(8) %10)
  br label %if.end11

if.else:                                          ; preds = %land.lhs.true, %if.end
  %11 = load ptr, ptr %uio.addr, align 8
  %fErrCode5 = getelementptr inbounds %"struct.icu_75::UInitOnce", ptr %11, i32 0, i32 1
  %12 = load i32, ptr %fErrCode5, align 4
  %call6 = call noundef signext i8 @_ZL9U_FAILURE10UErrorCode(i32 noundef %12)
  %tobool7 = icmp ne i8 %call6, 0
  br i1 %tobool7, label %if.then8, label %if.end10

if.then8:                                         ; preds = %if.else
  %13 = load ptr, ptr %uio.addr, align 8
  %fErrCode9 = getelementptr inbounds %"struct.icu_75::UInitOnce", ptr %13, i32 0, i32 1
  %14 = load i32, ptr %fErrCode9, align 4
  %15 = load ptr, ptr %errCode.addr, align 8
  store i32 %14, ptr %15, align 4
  br label %if.end10

if.end10:                                         ; preds = %if.then8, %if.else
  br label %if.end11

if.end11:                                         ; preds = %if.end10, %if.then4, %if.then
  ret void
}

; Function Attrs: mustprogress uwtable
define void @_ZNK6icu_7513OlsonTimeZone20checkTransitionRulesER10UErrorCode(ptr noundef nonnull align 8 dereferenceable(224) %this, ptr noundef nonnull align 4 dereferenceable(4) %status) #1 align 2 {
entry:
  %this.addr = alloca ptr, align 8
  %status.addr = alloca ptr, align 8
  %ncThis = alloca ptr, align 8
  store ptr %this, ptr %this.addr, align 8
  store ptr %status, ptr %status.addr, align 8
  %this1 = load ptr, ptr %this.addr, align 8
  store ptr %this1, ptr %ncThis, align 8
  %0 = load ptr, ptr %ncThis, align 8
  %transitionRulesInitOnce = getelementptr inbounds %"class.icu_75::OlsonTimeZone", ptr %0, i32 0, i32 21
  %1 = load ptr, ptr %ncThis, align 8
  %2 = load ptr, ptr %status.addr, align 8
  call void @_ZN6icu_7513umtx_initOnceIPNS_13OlsonTimeZoneEEEvRNS_9UInitOnceEPFvT_R10UErrorCodeES5_S7_(ptr noundef nonnull align 4 dereferenceable(8) %transitionRulesInitOnce, ptr noundef @_ZN6icu_75L9initRulesEPNS_13OlsonTimeZoneER10UErrorCode, ptr noundef %1, ptr noundef nonnull align 4 dereferenceable(4) %2)
  ret void
}

; Function Attrs: mustprogress nounwind uwtable
define internal noundef signext i8 @_ZL9U_FAILURE10UErrorCode(i32 noundef %code) #0 {
entry:
  %code.addr = alloca i32, align 4
  store i32 %code, ptr %code.addr, align 4
  %0 = load i32, ptr %code.addr, align 4
  %cmp = icmp sgt i32 %0, 0
  %conv = zext i1 %cmp to i8
  ret i8 %conv
}

; Function Attrs: mustprogress uwtable
define void @_ZNK6icu_7513OlsonTimeZone16getTimeZoneRulesERPKNS_19InitialTimeZoneRuleEPPKNS_12TimeZoneRuleERiR10UErrorCode(ptr noundef nonnull align 8 dereferenceable(224) %this, ptr noundef nonnull align 8 dereferenceable(8) %initial, ptr noundef %trsrules, ptr noundef nonnull align 4 dereferenceable(4) %trscount, ptr noundef nonnull align 4 dereferenceable(4) %status) unnamed_addr #1 align 2 {
entry:
  %this.addr = alloca ptr, align 8
  %initial.addr = alloca ptr, align 8
  %trsrules.addr = alloca ptr, align 8
  %trscount.addr = alloca ptr, align 8
  %status.addr = alloca ptr, align 8
  %cnt = alloca i32, align 4
  %i = alloca i32, align 4
  %tmpini = alloca ptr, align 8
  %tmpcnt = alloca i32, align 4
  store ptr %this, ptr %this.addr, align 8
  store ptr %initial, ptr %initial.addr, align 8
  store ptr %trsrules, ptr %trsrules.addr, align 8
  store ptr %trscount, ptr %trscount.addr, align 8
  store ptr %status, ptr %status.addr, align 8
  %this1 = load ptr, ptr %this.addr, align 8
  %0 = load ptr, ptr %status.addr, align 8
  %1 = load i32, ptr %0, align 4
  %call = call noundef signext i8 @_ZL9U_FAILURE10UErrorCode(i32 noundef %1)
  %tobool = icmp ne i8 %call, 0
  br i1 %tobool, label %if.then, label %if.end

if.then:                                          ; preds = %entry
  br label %return

if.end:                                           ; preds = %entry
  %2 = load ptr, ptr %status.addr, align 8
  call void @_ZNK6icu_7513OlsonTimeZone20checkTransitionRulesER10UErrorCode(ptr noundef nonnull align 8 dereferenceable(224) %this1, ptr noundef nonnull align 4 dereferenceable(4) %2)
  %3 = load ptr, ptr %status.addr, align 8
  %4 = load i32, ptr %3, align 4
  %call2 = call noundef signext i8 @_ZL9U_FAILURE10UErrorCode(i32 noundef %4)
  %tobool3 = icmp ne i8 %call2, 0
  br i1 %tobool3, label %if.then4, label %if.end5

if.then4:                                         ; preds = %if.end
  br label %return

if.end5:                                          ; preds = %if.end
  %initialRule = getelementptr inbounds %"class.icu_75::OlsonTimeZone", ptr %this1, i32 0, i32 14
  %5 = load ptr, ptr %initialRule, align 8
  %6 = load ptr, ptr %initial.addr, align 8
  store ptr %5, ptr %6, align 8
  store i32 0, ptr %cnt, align 4
  %historicRules = getelementptr inbounds %"class.icu_75::OlsonTimeZone", ptr %this1, i32 0, i32 18
  %7 = load ptr, ptr %historicRules, align 8
  %cmp = icmp ne ptr %7, null
  br i1 %cmp, label %land.lhs.true, label %if.end22

land.lhs.true:                                    ; preds = %if.end5
  %8 = load ptr, ptr %trscount.addr, align 8
  %9 = load i32, ptr %8, align 4
  %10 = load i32, ptr %cnt, align 4
  %cmp6 = icmp sgt i32 %9, %10
  br i1 %cmp6, label %if.then7, label %if.end22

if.then7:                                         ; preds = %land.lhs.true
  store i32 0, ptr %i, align 4
  br label %for.cond

for.cond:                                         ; preds = %for.inc, %if.then7
  %11 = load i32, ptr %i, align 4
  %historicRuleCount = getelementptr inbounds %"class.icu_75::OlsonTimeZone", ptr %this1, i32 0, i32 19
  %12 = load i16, ptr %historicRuleCount, align 8
  %conv = sext i16 %12 to i32
  %cmp8 = icmp slt i32 %11, %conv
  br i1 %cmp8, label %for.body, label %for.end

for.body:                                         ; preds = %for.cond
  %historicRules9 = getelementptr inbounds %"class.icu_75::OlsonTimeZone", ptr %this1, i32 0, i32 18
  %13 = load ptr, ptr %historicRules9, align 8
  %14 = load i32, ptr %i, align 4
  %idxprom = sext i32 %14 to i64
  %arrayidx = getelementptr inbounds ptr, ptr %13, i64 %idxprom
  %15 = load ptr, ptr %arrayidx, align 8
  %cmp10 = icmp ne ptr %15, null
  br i1 %cmp10, label %if.then11, label %if.end20

if.then11:                                        ; preds = %for.body
  %historicRules12 = getelementptr inbounds %"class.icu_75::OlsonTimeZone", ptr %this1, i32 0, i32 18
  %16 = load ptr, ptr %historicRules12, align 8
  %17 = load i32, ptr %i, align 4
  %idxprom13 = sext i32 %17 to i64
  %arrayidx14 = getelementptr inbounds ptr, ptr %16, i64 %idxprom13
  %18 = load ptr, ptr %arrayidx14, align 8
  %19 = load ptr, ptr %trsrules.addr, align 8
  %20 = load i32, ptr %cnt, align 4
  %inc = add nsw i32 %20, 1
  store i32 %inc, ptr %cnt, align 4
  %idxprom15 = sext i32 %20 to i64
  %arrayidx16 = getelementptr inbounds ptr, ptr %19, i64 %idxprom15
  store ptr %18, ptr %arrayidx16, align 8
  %21 = load i32, ptr %cnt, align 4
  %22 = load ptr, ptr %trscount.addr, align 8
  %23 = load i32, ptr %22, align 4
  %cmp17 = icmp sge i32 %21, %23
  br i1 %cmp17, label %if.then18, label %if.end19

if.then18:                                        ; preds = %if.then11
  br label %for.end

if.end19:                                         ; preds = %if.then11
  br label %if.end20

if.end20:                                         ; preds = %if.end19, %for.body
  br label %for.inc

for.inc:                                          ; preds = %if.end20
  %24 = load i32, ptr %i, align 4
  %inc21 = add nsw i32 %24, 1
  store i32 %inc21, ptr %i, align 4
  br label %for.cond, !llvm.loop !16

for.end:                                          ; preds = %if.then18, %for.cond
  br label %if.end22

if.end22:                                         ; preds = %for.end, %land.lhs.true, %if.end5
  %finalZoneWithStartYear = getelementptr inbounds %"class.icu_75::OlsonTimeZone", ptr %this1, i32 0, i32 20
  %25 = load ptr, ptr %finalZoneWithStartYear, align 8
  %cmp23 = icmp ne ptr %25, null
  br i1 %cmp23, label %land.lhs.true24, label %if.end34

land.lhs.true24:                                  ; preds = %if.end22
  %26 = load ptr, ptr %trscount.addr, align 8
  %27 = load i32, ptr %26, align 4
  %28 = load i32, ptr %cnt, align 4
  %cmp25 = icmp sgt i32 %27, %28
  br i1 %cmp25, label %if.then26, label %if.end34

if.then26:                                        ; preds = %land.lhs.true24
  %29 = load ptr, ptr %trscount.addr, align 8
  %30 = load i32, ptr %29, align 4
  %31 = load i32, ptr %cnt, align 4
  %sub = sub nsw i32 %30, %31
  store i32 %sub, ptr %tmpcnt, align 4
  %finalZoneWithStartYear27 = getelementptr inbounds %"class.icu_75::OlsonTimeZone", ptr %this1, i32 0, i32 20
  %32 = load ptr, ptr %finalZoneWithStartYear27, align 8
  %33 = load ptr, ptr %trsrules.addr, align 8
  %34 = load i32, ptr %cnt, align 4
  %idxprom28 = sext i32 %34 to i64
  %arrayidx29 = getelementptr inbounds ptr, ptr %33, i64 %idxprom28
  %35 = load ptr, ptr %status.addr, align 8
  %vtable = load ptr, ptr %32, align 8
  %vfn = getelementptr inbounds ptr, ptr %vtable, i64 18
  %36 = load ptr, ptr %vfn, align 8
  call void %36(ptr noundef nonnull align 8 dereferenceable(160) %32, ptr noundef nonnull align 8 dereferenceable(8) %tmpini, ptr noundef %arrayidx29, ptr noundef nonnull align 4 dereferenceable(4) %tmpcnt, ptr noundef nonnull align 4 dereferenceable(4) %35)
  %37 = load ptr, ptr %status.addr, align 8
  %38 = load i32, ptr %37, align 4
  %call30 = call noundef signext i8 @_ZL9U_FAILURE10UErrorCode(i32 noundef %38)
  %tobool31 = icmp ne i8 %call30, 0
  br i1 %tobool31, label %if.then32, label %if.end33

if.then32:                                        ; preds = %if.then26
  br label %return

if.end33:                                         ; preds = %if.then26
  %39 = load i32, ptr %tmpcnt, align 4
  %40 = load i32, ptr %cnt, align 4
  %add = add nsw i32 %40, %39
  store i32 %add, ptr %cnt, align 4
  br label %if.end34

if.end34:                                         ; preds = %if.end33, %land.lhs.true24, %if.end22
  %41 = load i32, ptr %cnt, align 4
  %42 = load ptr, ptr %trscount.addr, align 8
  store i32 %41, ptr %42, align 4
  br label %return

return:                                           ; preds = %if.end34, %if.then32, %if.then4, %if.then
  ret void
}