; Function Attrs: mustprogress uwtable
define void @_ZNK6icu_7513OlsonTimeZone16getTimeZoneRulesERPKNS_19InitialTimeZoneRuleEPPKNS_12TimeZoneRuleERiR10UErrorCode(ptr noundef nonnull align 8 dereferenceable(224) %this, ptr nocapture noundef nonnull writeonly align 8 dereferenceable(8) %initial, ptr noundef %trsrules, ptr nocapture noundef nonnull align 4 dereferenceable(4) %trscount, ptr noundef nonnull align 4 dereferenceable(4) %status) unnamed_addr #2 align 2 {
entry:
  %tmpini = alloca ptr, align 8
  %tmpcnt = alloca i32, align 4
  %0 = load i32, ptr %status, align 4
  %cmp.i = icmp slt i32 %0, 1
  br i1 %cmp.i, label %if.end, label %return

if.end:                                           ; preds = %entry
  %transitionRulesInitOnce.i = getelementptr inbounds i8, ptr %this, i64 216
  %1 = load atomic i32, ptr %transitionRulesInitOnce.i acquire, align 8
  %cmp.not.i.i = icmp eq i32 %1, 2
  br i1 %cmp.not.i.i, label %if.else.i.i, label %land.lhs.true.i.i

land.lhs.true.i.i:                                ; preds = %if.end
  %call2.i.i = tail call noundef signext i8 @_ZN6icu_7520umtx_initImplPreInitERNS_9UInitOnceE(ptr noundef nonnull align 4 dereferenceable(8) %transitionRulesInitOnce.i)
  %tobool3.not.i.i = icmp eq i8 %call2.i.i, 0
  br i1 %tobool3.not.i.i, label %if.else.i.i, label %if.then4.i.i

if.then4.i.i:                                     ; preds = %land.lhs.true.i.i
  tail call void @_ZN6icu_7513OlsonTimeZone19initTransitionRulesER10UErrorCode(ptr noundef nonnull align 8 dereferenceable(224) %this, ptr noundef nonnull align 4 dereferenceable(4) %status)
  %2 = load i32, ptr %status, align 4
  %fErrCode.i.i = getelementptr inbounds i8, ptr %this, i64 220
  store i32 %2, ptr %fErrCode.i.i, align 4
  tail call void @_ZN6icu_7521umtx_initImplPostInitERNS_9UInitOnceE(ptr noundef nonnull align 4 dereferenceable(8) %transitionRulesInitOnce.i)
  br label %_ZNK6icu_7513OlsonTimeZone20checkTransitionRulesER10UErrorCode.exit

if.else.i.i:                                      ; preds = %land.lhs.true.i.i, %if.end
  %fErrCode5.i.i = getelementptr inbounds i8, ptr %this, i64 220
  %3 = load i32, ptr %fErrCode5.i.i, align 4
  %cmp.i9.i.i = icmp slt i32 %3, 1
  br i1 %cmp.i9.i.i, label %_ZNK6icu_7513OlsonTimeZone20checkTransitionRulesER10UErrorCode.exit, label %_ZNK6icu_7513OlsonTimeZone20checkTransitionRulesER10UErrorCode.exit.thread

_ZNK6icu_7513OlsonTimeZone20checkTransitionRulesER10UErrorCode.exit.thread: ; preds = %if.else.i.i
  store i32 %3, ptr %status, align 4
  br label %return

_ZNK6icu_7513OlsonTimeZone20checkTransitionRulesER10UErrorCode.exit: ; preds = %if.then4.i.i, %if.else.i.i
  %.pr = load i32, ptr %status, align 4
  %cmp.i21 = icmp slt i32 %.pr, 1
  br i1 %cmp.i21, label %if.end5, label %return

if.end5:                                          ; preds = %_ZNK6icu_7513OlsonTimeZone20checkTransitionRulesER10UErrorCode.exit
  %initialRule = getelementptr inbounds i8, ptr %this, i64 160
  %4 = load ptr, ptr %initialRule, align 8
  store ptr %4, ptr %initial, align 8
  %historicRules = getelementptr inbounds i8, ptr %this, i64 192
  %5 = load ptr, ptr %historicRules, align 8
  %cmp.not = icmp ne ptr %5, null
  %6 = load i32, ptr %trscount, align 4
  %cmp6 = icmp sgt i32 %6, 0
  %or.cond = select i1 %cmp.not, i1 %cmp6, i1 false
  br i1 %or.cond, label %for.cond.preheader, label %if.end22

for.cond.preheader:                               ; preds = %if.end5
  %historicRuleCount = getelementptr inbounds i8, ptr %this, i64 200
  %7 = load i16, ptr %historicRuleCount, align 8
  %cmp826 = icmp sgt i16 %7, 0
  br i1 %cmp826, label %for.body, label %if.end22

for.body:                                         ; preds = %for.cond.preheader, %for.inc
  %8 = phi i32 [ %13, %for.inc ], [ %6, %for.cond.preheader ]
  %9 = phi i16 [ %14, %for.inc ], [ %7, %for.cond.preheader ]
  %indvars.iv = phi i64 [ %indvars.iv.next, %for.inc ], [ 0, %for.cond.preheader ]
  %cnt.027 = phi i32 [ %cnt.1, %for.inc ], [ 0, %for.cond.preheader ]
  %10 = load ptr, ptr %historicRules, align 8
  %arrayidx = getelementptr inbounds ptr, ptr %10, i64 %indvars.iv
  %11 = load ptr, ptr %arrayidx, align 8
  %cmp10.not = icmp eq ptr %11, null
  br i1 %cmp10.not, label %for.inc, label %if.then11

if.then11:                                        ; preds = %for.body
  %inc = add nsw i32 %cnt.027, 1
  %idxprom15 = sext i32 %cnt.027 to i64
  %arrayidx16 = getelementptr inbounds ptr, ptr %trsrules, i64 %idxprom15
  store ptr %11, ptr %arrayidx16, align 8
  %12 = load i32, ptr %trscount, align 4
  %cmp17.not = icmp slt i32 %inc, %12
  br i1 %cmp17.not, label %if.then11.for.inc_crit_edge, label %if.end22

if.then11.for.inc_crit_edge:                      ; preds = %if.then11
  %.pre = load i16, ptr %historicRuleCount, align 8
  br label %for.inc

for.inc:                                          ; preds = %if.then11.for.inc_crit_edge, %for.body
  %13 = phi i32 [ %12, %if.then11.for.inc_crit_edge ], [ %8, %for.body ]
  %14 = phi i16 [ %.pre, %if.then11.for.inc_crit_edge ], [ %9, %for.body ]
  %cnt.1 = phi i32 [ %inc, %if.then11.for.inc_crit_edge ], [ %cnt.027, %for.body ]
  %indvars.iv.next = add nuw nsw i64 %indvars.iv, 1
  %15 = sext i16 %14 to i64
  %cmp8 = icmp slt i64 %indvars.iv.next, %15
  br i1 %cmp8, label %for.body, label %if.end22, !llvm.loop !17

if.end22:                                         ; preds = %if.then11, %for.inc, %for.cond.preheader, %if.end5
  %16 = phi i32 [ %6, %if.end5 ], [ %6, %for.cond.preheader ], [ %12, %if.then11 ], [ %13, %for.inc ]
  %cnt.2 = phi i32 [ 0, %if.end5 ], [ 0, %for.cond.preheader ], [ %inc, %if.then11 ], [ %cnt.1, %for.inc ]
  %finalZoneWithStartYear = getelementptr inbounds i8, ptr %this, i64 208
  %17 = load ptr, ptr %finalZoneWithStartYear, align 8
  %cmp23.not = icmp ne ptr %17, null
  %cmp25 = icmp sgt i32 %16, %cnt.2
  %or.cond32 = select i1 %cmp23.not, i1 %cmp25, i1 false
  br i1 %or.cond32, label %if.then26, label %if.end34

if.then26:                                        ; preds = %if.end22
  %sub = sub nsw i32 %16, %cnt.2
  store i32 %sub, ptr %tmpcnt, align 4
  %idxprom28 = sext i32 %cnt.2 to i64
  %arrayidx29 = getelementptr inbounds ptr, ptr %trsrules, i64 %idxprom28
  %vtable = load ptr, ptr %17, align 8
  %vfn = getelementptr inbounds i8, ptr %vtable, i64 144
  %18 = load ptr, ptr %vfn, align 8
  call void %18(ptr noundef nonnull align 8 dereferenceable(160) %17, ptr noundef nonnull align 8 dereferenceable(8) %tmpini, ptr noundef %arrayidx29, ptr noundef nonnull align 4 dereferenceable(4) %tmpcnt, ptr noundef nonnull align 4 dereferenceable(4) %status)
  %19 = load i32, ptr %status, align 4
  %cmp.i23 = icmp slt i32 %19, 1
  br i1 %cmp.i23, label %if.end33, label %return

if.end33:                                         ; preds = %if.then26
  %20 = load i32, ptr %tmpcnt, align 4
  %add = add nsw i32 %20, %cnt.2
  br label %if.end34

if.end34:                                         ; preds = %if.end33, %if.end22
  %cnt.3 = phi i32 [ %add, %if.end33 ], [ %cnt.2, %if.end22 ]
  store i32 %cnt.3, ptr %trscount, align 4
  br label %return

return:                                           ; preds = %_ZNK6icu_7513OlsonTimeZone20checkTransitionRulesER10UErrorCode.exit.thread, %if.then26, %_ZNK6icu_7513OlsonTimeZone20checkTransitionRulesER10UErrorCode.exit, %entry, %if.end34
  ret void
}